; Function Attrs: nounwind uwtable
define noalias noundef nonnull ptr @lean_ir_emit_c(ptr noundef %0, ptr noundef %1) local_unnamed_addr #0 {
  %3 = load ptr, ptr @l_Lean_IR_emitC___closed__3, align 8, !tbaa !4
  %4 = load ptr, ptr @l_Lean_IR_EmitC_emitFnDeclAux___lambda__3___closed__5, align 8, !tbaa !4
  tail call void @lean_inc_heartbeat() #5
  %5 = tail call noalias ptr @mi_malloc_small(i64 noundef 48) #5
  %6 = icmp eq ptr %5, null
  br i1 %6, label %7, label %lean_alloc_ctor.exit

7:                                                ; preds = %2
  tail call void @lean_internal_panic_out_of_memory() #6
  unreachable

lean_alloc_ctor.exit:                             ; preds = %2
  %8 = getelementptr inbounds nuw i8, ptr %5, i64 4
  store i32 1, ptr %5, align 4, !tbaa !8
  store i32 327728, ptr %8, align 4
  %9 = getelementptr inbounds nuw i8, ptr %5, i64 8
  store ptr %0, ptr %9, align 8, !tbaa !4
  %10 = getelementptr inbounds nuw i8, ptr %5, i64 16
  store ptr %1, ptr %10, align 8, !tbaa !4
  %11 = getelementptr inbounds nuw i8, ptr %5, i64 24
  store ptr %3, ptr %11, align 8, !tbaa !4
  %12 = getelementptr inbounds nuw i8, ptr %5, i64 32
  store ptr inttoptr (i64 1 to ptr), ptr %12, align 8, !tbaa !4
  %13 = getelementptr inbounds nuw i8, ptr %5, i64 40
  store ptr %4, ptr %13, align 8, !tbaa !4
  %14 = load ptr, ptr @l_Lean_IR_EmitC_emitFileHeader___closed__1, align 8, !tbaa !4
  %15 = tail call ptr @l_Lean_IR_EmitC_main(ptr noundef nonnull %5, ptr noundef %14)
  %16 = ptrtoint ptr %15 to i64
  %17 = and i64 %16, 1
  %.not.i30 = icmp eq i64 %17, 0
  br i1 %.not.i30, label %21, label %18

18:                                               ; preds = %lean_alloc_ctor.exit
  %19 = lshr i64 %16, 1
  %20 = trunc i64 %19 to i32
  br label %lean_obj_tag.exit

21:                                               ; preds = %lean_alloc_ctor.exit
  %22 = getelementptr i8, ptr %15, i64 4
  %.val.i = load i32, ptr %22, align 4
  %23 = lshr i32 %.val.i, 24
  br label %lean_obj_tag.exit

lean_obj_tag.exit:                                ; preds = %18, %21
  %.0.i = phi i32 [ %20, %18 ], [ %23, %21 ]
  %24 = icmp eq i32 %.0.i, 0
  br i1 %24, label %25, label %46

25:                                               ; preds = %lean_obj_tag.exit
  %26 = getelementptr inbounds nuw i8, ptr %15, i64 16
  %27 = load ptr, ptr %26, align 8, !tbaa !4
  %28 = ptrtoint ptr %27 to i64
  %29 = and i64 %28, 1
  %.not39 = icmp eq i64 %29, 0
  br i1 %.not39, label %30, label %lean_inc.exit26

30:                                               ; preds = %25
  %.val.i31 = load i32, ptr %27, align 4, !tbaa !8
  %31 = icmp sgt i32 %.val.i31, 0
  br i1 %31, label %32, label %34, !prof !11

32:                                               ; preds = %30
  %33 = add nuw i32 %.val.i31, 1
  store i32 %33, ptr %27, align 4, !tbaa !8
  br label %lean_inc.exit26

34:                                               ; preds = %30
  %.not.i32 = icmp eq i32 %.val.i31, 0
  br i1 %.not.i32, label %lean_inc.exit26, label %35

35:                                               ; preds = %34
  tail call void @lean_inc_ref_cold(ptr noundef nonnull %27) #5
  br label %lean_inc.exit26

lean_inc.exit26:                                  ; preds = %35, %34, %32, %25
  br i1 %.not.i30, label %36, label %lean_dec.exit27

36:                                               ; preds = %lean_inc.exit26
  %37 = load i32, ptr %15, align 4, !tbaa !8
  %38 = icmp sgt i32 %37, 1
  br i1 %38, label %39, label %41, !prof !11

39:                                               ; preds = %36
  %40 = add nsw i32 %37, -1
  store i32 %40, ptr %15, align 4, !tbaa !8
  br label %lean_dec.exit27

41:                                               ; preds = %36
  %.not.i = icmp eq i32 %37, 0
  br i1 %.not.i, label %lean_dec.exit27, label %42

42:                                               ; preds = %41
  tail call void @lean_dec_ref_cold(ptr noundef nonnull %15) #5
  br label %lean_dec.exit27

lean_dec.exit27:                                  ; preds = %42, %41, %39, %lean_inc.exit26
  tail call void @lean_inc_heartbeat() #5
  %43 = tail call noalias ptr @mi_malloc_small(i64 noundef 16) #5
  %44 = icmp eq ptr %43, null
  br i1 %44, label %45, label %lean_alloc_ctor.exit33

45:                                               ; preds = %lean_dec.exit27
  tail call void @lean_internal_panic_out_of_memory() #6
  unreachable

46:                                               ; preds = %lean_obj_tag.exit
  %47 = getelementptr inbounds nuw i8, ptr %15, i64 8
  %48 = load ptr, ptr %47, align 8, !tbaa !4
  %49 = ptrtoint ptr %48 to i64
  %50 = and i64 %49, 1
  %.not = icmp eq i64 %50, 0
  br i1 %.not, label %51, label %lean_inc.exit

51:                                               ; preds = %46
  %.val.i34 = load i32, ptr %48, align 4, !tbaa !8
  %52 = icmp sgt i32 %.val.i34, 0
  br i1 %52, label %53, label %55, !prof !11

53:                                               ; preds = %51
  %54 = add nuw i32 %.val.i34, 1
  store i32 %54, ptr %48, align 4, !tbaa !8
  br label %lean_inc.exit

55:                                               ; preds = %51
  %.not.i35 = icmp eq i32 %.val.i34, 0
  br i1 %.not.i35, label %lean_inc.exit, label %56

56:                                               ; preds = %55
  tail call void @lean_inc_ref_cold(ptr noundef nonnull %48) #5
  br label %lean_inc.exit

lean_inc.exit:                                    ; preds = %56, %55, %53, %46
  br i1 %.not.i30, label %57, label %lean_dec.exit

57:                                               ; preds = %lean_inc.exit
  %58 = load i32, ptr %15, align 4, !tbaa !8
  %59 = icmp sgt i32 %58, 1
  br i1 %59, label %60, label %62, !prof !11

60:                                               ; preds = %57
  %61 = add nsw i32 %58, -1
  store i32 %61, ptr %15, align 4, !tbaa !8
  br label %lean_dec.exit

62:                                               ; preds = %57
  %.not.i28 = icmp eq i32 %58, 0
  br i1 %.not.i28, label %lean_dec.exit, label %63

63:                                               ; preds = %62
  tail call void @lean_dec_ref_cold(ptr noundef nonnull %15) #5
  br label %lean_dec.exit

lean_dec.exit:                                    ; preds = %63, %62, %60, %lean_inc.exit
  tail call void @lean_inc_heartbeat() #5
  %64 = tail call noalias ptr @mi_malloc_small(i64 noundef 16) #5
  %65 = icmp eq ptr %64, null
  br i1 %65, label %66, label %lean_alloc_ctor.exit33

66:                                               ; preds = %lean_dec.exit
  tail call void @lean_internal_panic_out_of_memory() #6
  unreachable

lean_alloc_ctor.exit33:                           ; preds = %lean_dec.exit, %lean_dec.exit27
  %.sink46 = phi ptr [ %43, %lean_dec.exit27 ], [ %64, %lean_dec.exit ]
  %.sink43 = phi i32 [ 16842768, %lean_dec.exit27 ], [ 65552, %lean_dec.exit ]
  %.sink = phi ptr [ %27, %lean_dec.exit27 ], [ %48, %lean_dec.exit ]
  %67 = getelementptr inbounds nuw i8, ptr %.sink46, i64 4
  store i32 1, ptr %.sink46, align 4, !tbaa !8
  store i32 %.sink43, ptr %67, align 4
  %68 = getelementptr inbounds nuw i8, ptr %.sink46, i64 8
  store ptr %.sink, ptr %68, align 8, !tbaa !4
  ret ptr %.sink46
}